target datalayout = "e-m:e-p270:32:32-p271:32:32-p272:64:64-i64:64-i128:128-f80:128-n8:16:32:64-S128"
target triple = "x86_64-pc-linux-gnu"

%struct.lstopo_output = type { ptr, i32, i32, i32, ptr, i32, i32, i32, i32, i32, i32, i32, i32, ptr, ptr, i32, i32, i64, i64, i64, i32, [3 x [128 x i8]], i32, i32, ptr, i32, i32, i32, i32, i32, i32, %struct.hwloc_calc_level, i32, i32, i32, i64, [256 x i8], i32, i32, i32, i32, i32, float, [20 x i32], i32, i32, i32, [20 x i32], i32, [20 x i32], i32, [20 x i32], i32, i32, i32, i32, ptr, ptr, i32, [20 x i32], [20 x i32], [20 x i32], ptr, ptr, i64, ptr, i32, i32, i32 }
%struct.hwloc_calc_level = type { i32, i32, %union.hwloc_obj_attr_u, [32 x i8], i32, i32, i32, i32 }
%union.hwloc_obj_attr_u = type { %struct.hwloc_numanode_attr_s, [24 x i8] }
%struct.hwloc_numanode_attr_s = type { i64, i32, ptr }
%struct.hwloc_infos_s = type { ptr, i32, i32 }
%struct.hwloc_info_s = type { ptr, ptr }

@.str.46 = private unnamed_addr constant [38 x i8] c"CPU kind #%u efficiency %d cpuset %s\0A\00", align 1
@.str.47 = private unnamed_addr constant [11 x i8] c"  %s = %s\0A\00", align 1

; Function Attrs: nounwind uwtable
define internal void @output_cpukinds(ptr noundef %0) #0 {
  %2 = alloca ptr, align 8
  %3 = alloca ptr, align 8
  %4 = alloca i32, align 4
  %5 = alloca i32, align 4
  %6 = alloca i32, align 4
  %7 = alloca ptr, align 8
  %8 = alloca i32, align 4
  %9 = alloca ptr, align 8
  %10 = alloca i32, align 4
  %11 = alloca ptr, align 8
  store ptr %0, ptr %2, align 8, !tbaa !4
  call void @llvm.lifetime.start.p0(i64 8, ptr %3) #12
  %12 = load ptr, ptr %2, align 8, !tbaa !4
  %13 = getelementptr inbounds nuw %struct.lstopo_output, ptr %12, i32 0, i32 0
  %14 = load ptr, ptr %13, align 8, !tbaa !11
  store ptr %14, ptr %3, align 8, !tbaa !23
  call void @llvm.lifetime.start.p0(i64 4, ptr %4) #12
  call void @llvm.lifetime.start.p0(i64 4, ptr %5) #12
  call void @llvm.lifetime.start.p0(i64 4, ptr %6) #12
  call void @llvm.lifetime.start.p0(i64 8, ptr %7) #12
  %15 = call noalias ptr @hwloc_bitmap_alloc()
  store ptr %15, ptr %7, align 8, !tbaa !35
  %16 = load ptr, ptr %3, align 8, !tbaa !23
  %17 = call i32 @hwloc_cpukinds_get_nr(ptr noundef %16, i64 noundef 0)
  store i32 %17, ptr %6, align 4, !tbaa !25
  store i32 0, ptr %4, align 4, !tbaa !25
  br label %18

18:                                               ; preds = %66, %1
  %19 = load i32, ptr %4, align 4, !tbaa !25
  %20 = load i32, ptr %6, align 4, !tbaa !25
  %21 = icmp ult i32 %19, %20
  br i1 %21, label %22, label %69

22:                                               ; preds = %18
  call void @llvm.lifetime.start.p0(i64 4, ptr %8) #12
  call void @llvm.lifetime.start.p0(i64 8, ptr %9) #12
  call void @llvm.lifetime.start.p0(i64 4, ptr %10) #12
  %23 = load ptr, ptr %3, align 8, !tbaa !23
  %24 = load i32, ptr %4, align 4, !tbaa !25
  %25 = load ptr, ptr %7, align 8, !tbaa !35
  %26 = call i32 @hwloc_cpukinds_get_info(ptr noundef %23, i32 noundef %24, ptr noundef %25, ptr noundef %8, ptr noundef %9, i64 noundef 0)
  store i32 %26, ptr %10, align 4, !tbaa !25
  %27 = load i32, ptr %10, align 4, !tbaa !25
  %28 = icmp ne i32 %27, 0
  br i1 %28, label %65, label %29

29:                                               ; preds = %22
  call void @llvm.lifetime.start.p0(i64 8, ptr %11) #12
  %30 = load ptr, ptr %7, align 8, !tbaa !35
  %31 = call i32 @hwloc_bitmap_asprintf(ptr noundef %11, ptr noundef %30)
  %32 = load i32, ptr %4, align 4, !tbaa !25
  %33 = load i32, ptr %8, align 4, !tbaa !25
  %34 = load ptr, ptr %11, align 8, !tbaa !9
  %35 = call i32 (ptr, ...) @printf(ptr noundef @.str.46, i32 noundef %32, i32 noundef %33, ptr noundef %34)
  %36 = load ptr, ptr %11, align 8, !tbaa !9
  call void @free(ptr noundef %36) #12
  store i32 0, ptr %5, align 4, !tbaa !25
  br label %37

37:                                               ; preds = %61, %29
  %38 = load i32, ptr %5, align 4, !tbaa !25
  %39 = load ptr, ptr %9, align 8, !tbaa !36
  %40 = getelementptr inbounds nuw %struct.hwloc_infos_s, ptr %39, i32 0, i32 1
  %41 = load i32, ptr %40, align 8, !tbaa !38
  %42 = icmp ult i32 %38, %41
  br i1 %42, label %43, label %64

43:                                               ; preds = %37
  %44 = load ptr, ptr %9, align 8, !tbaa !36
  %45 = getelementptr inbounds nuw %struct.hwloc_infos_s, ptr %44, i32 0, i32 0
  %46 = load ptr, ptr %45, align 8, !tbaa !41
  %47 = load i32, ptr %5, align 4, !tbaa !25
  %48 = zext i32 %47 to i64
  %49 = getelementptr inbounds nuw %struct.hwloc_info_s, ptr %46, i64 %48
  %50 = getelementptr inbounds nuw %struct.hwloc_info_s, ptr %49, i32 0, i32 0
  %51 = load ptr, ptr %50, align 8, !tbaa !44
  %52 = load ptr, ptr %9, align 8, !tbaa !36
  %53 = getelementptr inbounds nuw %struct.hwloc_infos_s, ptr %52, i32 0, i32 0
  %54 = load ptr, ptr %53, align 8, !tbaa !41
  %55 = load i32, ptr %5, align 4, !tbaa !25
  %56 = zext i32 %55 to i64
  %57 = getelementptr inbounds nuw %struct.hwloc_info_s, ptr %54, i64 %56
  %58 = getelementptr inbounds nuw %struct.hwloc_info_s, ptr %57, i32 0, i32 1
  %59 = load ptr, ptr %58, align 8, !tbaa !42
  %60 = call i32 (ptr, ...) @printf(ptr noundef @.str.47, ptr noundef %51, ptr noundef %59)
  br label %61

61:                                               ; preds = %43
  %62 = load i32, ptr %5, align 4, !tbaa !25
  %63 = add i32 %62, 1
  store i32 %63, ptr %5, align 4, !tbaa !25
  br label %37, !llvm.loop !67

64:                                               ; preds = %37
  call void @llvm.lifetime.end.p0(i64 8, ptr %11) #12
  br label %65

65:                                               ; preds = %64, %22
  call void @llvm.lifetime.end.p0(i64 4, ptr %10) #12
  call void @llvm.lifetime.end.p0(i64 8, ptr %9) #12
  call void @llvm.lifetime.end.p0(i64 4, ptr %8) #12
  br label %66

66:                                               ; preds = %65
  %67 = load i32, ptr %4, align 4, !tbaa !25
  %68 = add i32 %67, 1
  store i32 %68, ptr %4, align 4, !tbaa !25
  br label %18, !llvm.loop !68

69:                                               ; preds = %18
  %70 = load ptr, ptr %7, align 8, !tbaa !35
  call void @hwloc_bitmap_free(ptr noundef %70)
  call void @llvm.lifetime.end.p0(i64 8, ptr %7) #12
  call void @llvm.lifetime.end.p0(i64 4, ptr %6) #12
  call void @llvm.lifetime.end.p0(i64 4, ptr %5) #12
  call void @llvm.lifetime.end.p0(i64 4, ptr %4) #12
  call void @llvm.lifetime.end.p0(i64 8, ptr %3) #12
  ret void
}