; Function Attrs: nounwind uwtable
define internal fastcc void @output_cpukinds(ptr %.0.val) unnamed_addr #0 {
  %1 = alloca i32, align 4
  %2 = alloca ptr, align 8
  %3 = alloca ptr, align 8
  %4 = tail call noalias ptr @hwloc_bitmap_alloc() #18
  %5 = tail call i32 @hwloc_cpukinds_get_nr(ptr noundef %.0.val, i64 noundef 0) #18
  %.not6 = icmp eq i32 %5, 0
  br i1 %.not6, label %._crit_edge5, label %.lr.ph4

.lr.ph4:                                          ; preds = %0, %28
  %.02 = phi i32 [ %29, %28 ], [ 0, %0 ]
  call void @llvm.lifetime.start.p0(i64 4, ptr nonnull %1) #18
  call void @llvm.lifetime.start.p0(i64 8, ptr nonnull %2) #18
  %6 = call i32 @hwloc_cpukinds_get_info(ptr noundef %.0.val, i32 noundef %.02, ptr noundef %4, ptr noundef nonnull %1, ptr noundef nonnull %2, i64 noundef 0) #18
  %.not = icmp eq i32 %6, 0
  br i1 %.not, label %7, label %28

7:                                                ; preds = %.lr.ph4
  call void @llvm.lifetime.start.p0(i64 8, ptr nonnull %3) #18
  %8 = call i32 @hwloc_bitmap_asprintf(ptr noundef nonnull %3, ptr noundef %4) #18
  %9 = load i32, ptr %1, align 4, !tbaa !23
  %10 = load ptr, ptr %3, align 8, !tbaa !31
  %11 = call i32 (ptr, ...) @printf(ptr noundef nonnull dereferenceable(1) @.str.46, i32 noundef %.02, i32 noundef %9, ptr noundef %10)
  %12 = load ptr, ptr %3, align 8, !tbaa !31
  call void @free(ptr noundef %12) #18
  %13 = load ptr, ptr %2, align 8, !tbaa !69
  %14 = getelementptr inbounds nuw i8, ptr %13, i64 8
  %15 = load i32, ptr %14, align 8, !tbaa !32
  %.not7 = icmp eq i32 %15, 0
  br i1 %.not7, label %._crit_edge, label %.lr.ph

.lr.ph:                                           ; preds = %7, %.lr.ph
  %indvars.iv = phi i64 [ %indvars.iv.next, %.lr.ph ], [ 0, %7 ]
  %16 = phi ptr [ %23, %.lr.ph ], [ %13, %7 ]
  %17 = load ptr, ptr %16, align 8, !tbaa !35
  %18 = getelementptr inbounds nuw %struct.hwloc_info_s, ptr %17, i64 %indvars.iv
  %19 = load ptr, ptr %18, align 8, !tbaa !38
  %20 = getelementptr inbounds nuw i8, ptr %18, i64 8
  %21 = load ptr, ptr %20, align 8, !tbaa !36
  %22 = call i32 (ptr, ...) @printf(ptr noundef nonnull dereferenceable(1) @.str.47, ptr noundef %19, ptr noundef %21)
  %indvars.iv.next = add nuw nsw i64 %indvars.iv, 1
  %23 = load ptr, ptr %2, align 8, !tbaa !69
  %24 = getelementptr inbounds nuw i8, ptr %23, i64 8
  %25 = load i32, ptr %24, align 8, !tbaa !32
  %26 = zext i32 %25 to i64
  %27 = icmp samesign ult i64 %indvars.iv.next, %26
  br i1 %27, label %.lr.ph, label %._crit_edge, !llvm.loop !71

._crit_edge:                                      ; preds = %.lr.ph, %7
  call void @llvm.lifetime.end.p0(i64 8, ptr nonnull %3) #18
  br label %28

28:                                               ; preds = %._crit_edge, %.lr.ph4
  call void @llvm.lifetime.end.p0(i64 8, ptr nonnull %2) #18
  call void @llvm.lifetime.end.p0(i64 4, ptr nonnull %1) #18
  %29 = add nuw i32 %.02, 1
  %exitcond.not = icmp eq i32 %29, %5
  br i1 %exitcond.not, label %._crit_edge5, label %.lr.ph4, !llvm.loop !72

._crit_edge5:                                     ; preds = %28, %0
  call void @hwloc_bitmap_free(ptr noundef %4) #18
  ret void
}